target datalayout = "e-m:e-p270:32:32-p271:32:32-p272:64:64-i64:64-i128:128-f80:128-n8:16:32:64-S128"
target triple = "x86_64-pc-linux-gnu"

%struct._lv_global_t = type { i8, i8, %struct.lv_ll_t, ptr, ptr, %struct.lv_ll_t, i8, i32, i32, ptr, %struct.lv_ll_t, ptr, %struct.lv_ll_t, ptr, ptr, i32, ptr, i8, i32, i32, ptr, i32, %struct.lv_timer_state_t, %struct.lv_anim_state_t, %struct.lv_tick_state_t, %struct._lv_draw_buf_handlers_t, %struct._lv_draw_buf_handlers_t, %struct._lv_draw_buf_handlers_t, %struct.lv_ll_t, ptr, ptr, %struct.lv_draw_global_info_t, [4 x %struct.lv_draw_sw_mask_radius_circle_dsc_t], ptr, ptr, ptr, %struct.lv_tlsf_state_t, %struct.lv_ll_t, ptr, ptr, %struct.lv_style_t, i64, ptr, i32, ptr }
%struct.lv_timer_state_t = type { %struct.lv_ll_t, i8, i8, i8, i8, i32, i8, i32, i32, i32, i32, ptr, ptr }
%struct.lv_anim_state_t = type { i8, i8, ptr, %struct.lv_ll_t }
%struct.lv_tick_state_t = type { i32, i8, ptr, ptr }
%struct._lv_draw_buf_handlers_t = type { ptr, ptr, ptr, ptr, ptr, ptr }
%struct.lv_draw_global_info_t = type { ptr, i32, i32, i32, i32, i8 }
%struct.lv_draw_sw_mask_radius_circle_dsc_t = type { ptr, ptr, ptr, ptr, i32, i32, i32 }
%struct.lv_tlsf_state_t = type { ptr, i64, i64, %struct.lv_ll_t }
%struct.lv_ll_t = type { i32, ptr, ptr }
%struct.lv_style_t = type { ptr, i32, i8 }

@lv_global = external global %struct._lv_global_t, align 8

; Function Attrs: nounwind uwtable
define void @lv_mem_remove_pool(ptr noundef %0) #0 {
  %2 = alloca ptr, align 8
  %3 = alloca ptr, align 8
  %4 = alloca i32, align 4
  store ptr %0, ptr %2, align 8, !tbaa !30
  call void @llvm.lifetime.start.p0(i64 8, ptr %3) #4
  %5 = call ptr @lv_ll_get_head(ptr noundef getelementptr inbounds nuw (%struct.lv_tlsf_state_t, ptr getelementptr inbounds nuw (%struct._lv_global_t, ptr @lv_global, i32 0, i32 36), i32 0, i32 3))
  store ptr %5, ptr %3, align 8, !tbaa !30
  br label %6

6:                                                ; preds = %20, %1
  %7 = load ptr, ptr %3, align 8, !tbaa !30
  %8 = icmp ne ptr %7, null
  br i1 %8, label %9, label %23

9:                                                ; preds = %6
  %10 = load ptr, ptr %3, align 8, !tbaa !30
  %11 = load ptr, ptr %10, align 8, !tbaa !30
  %12 = load ptr, ptr %2, align 8, !tbaa !30
  %13 = icmp eq ptr %11, %12
  br i1 %13, label %14, label %19

14:                                               ; preds = %9
  %15 = load ptr, ptr %3, align 8, !tbaa !30
  call void @lv_ll_remove(ptr noundef getelementptr inbounds nuw (%struct.lv_tlsf_state_t, ptr getelementptr inbounds nuw (%struct._lv_global_t, ptr @lv_global, i32 0, i32 36), i32 0, i32 3), ptr noundef %15)
  %16 = load ptr, ptr %3, align 8, !tbaa !30
  call void @lv_free(ptr noundef %16)
  %17 = load ptr, ptr getelementptr inbounds nuw (%struct._lv_global_t, ptr @lv_global, i32 0, i32 36), align 8, !tbaa !3
  %18 = load ptr, ptr %2, align 8, !tbaa !30
  call void @lv_tlsf_remove_pool(ptr noundef %17, ptr noundef %18)
  store i32 1, ptr %4, align 4
  br label %27

19:                                               ; preds = %9
  br label %20

20:                                               ; preds = %19
  %21 = load ptr, ptr %3, align 8, !tbaa !30
  %22 = call ptr @lv_ll_get_next(ptr noundef getelementptr inbounds nuw (%struct.lv_tlsf_state_t, ptr getelementptr inbounds nuw (%struct._lv_global_t, ptr @lv_global, i32 0, i32 36), i32 0, i32 3), ptr noundef %21)
  store ptr %22, ptr %3, align 8, !tbaa !30
  br label %6, !llvm.loop !32

23:                                               ; preds = %6
  br label %24

24:                                               ; preds = %23
  br label %25

25:                                               ; preds = %24
  br label %26

26:                                               ; preds = %25
  store i32 0, ptr %4, align 4
  br label %27

27:                                               ; preds = %26, %14
  call void @llvm.lifetime.end.p0(i64 8, ptr %3) #4
  %28 = load i32, ptr %4, align 4
  switch i32 %28, label %30 [
    i32 0, label %29
    i32 1, label %29
  ]

29:                                               ; preds = %27, %27
  ret void

30:                                               ; preds = %27
  unreachable
}