; Function Attrs: nounwind uwtable
define void @lv_mem_remove_pool(ptr noundef %0) local_unnamed_addr #0 {
  %2 = tail call ptr @lv_ll_get_head(ptr noundef nonnull getelementptr inbounds nuw (i8, ptr @lv_global, i64 808)) #4
  %.not9 = icmp eq ptr %2, null
  br i1 %.not9, label %.loopexit, label %.lr.ph

.lr.ph:                                           ; preds = %1, %7
  %.010 = phi ptr [ %8, %7 ], [ %2, %1 ]
  %3 = load ptr, ptr %.010, align 8, !tbaa !30
  %4 = icmp eq ptr %3, %0
  br i1 %4, label %5, label %7

5:                                                ; preds = %.lr.ph
  tail call void @lv_ll_remove(ptr noundef nonnull getelementptr inbounds nuw (i8, ptr @lv_global, i64 808), ptr noundef nonnull %.010) #4
  tail call void @lv_free(ptr noundef nonnull %.010) #4
  %6 = load ptr, ptr getelementptr inbounds nuw (i8, ptr @lv_global, i64 784), align 8, !tbaa !3
  tail call void @lv_tlsf_remove_pool(ptr noundef %6, ptr noundef %0) #4
  br label %.loopexit

7:                                                ; preds = %.lr.ph
  %8 = tail call ptr @lv_ll_get_next(ptr noundef nonnull getelementptr inbounds nuw (i8, ptr @lv_global, i64 808), ptr noundef nonnull %.010) #4
  %.not = icmp eq ptr %8, null
  br i1 %.not, label %.loopexit, label %.lr.ph, !llvm.loop !31

.loopexit:                                        ; preds = %7, %1, %5
  ret void
}